target datalayout = "e-m:e-p270:32:32-p271:32:32-p272:64:64-i64:64-i128:128-f80:128-n8:16:32:64-S128"
target triple = "x86_64-pc-linux-gnu"

%"struct.std::atomic.10" = type { %"struct.std::__atomic_base.11" }
%"struct.std::__atomic_base.11" = type { i64 }
%"struct.std::atomic" = type { %"struct.std::__atomic_base" }
%"struct.std::__atomic_base" = type { i32 }
%"class.folly::Baton" = type { %"struct.std::atomic" }
%"class.std::mutex" = type { %"class.std::__mutex_base" }
%"class.std::__mutex_base" = type { %union.pthread_mutex_t }
%union.pthread_mutex_t = type { %struct.__pthread_mutex_s }
%struct.__pthread_mutex_s = type { i32, i32, i32, i32, i32, i16, i16, %struct.__pthread_internal_list }
%struct.__pthread_internal_list = type { ptr, ptr }
%"struct.std::atomic.12" = type { %"struct.std::__atomic_base.13" }
%"struct.std::__atomic_base.13" = type { i8 }
%"struct.folly::IOThreadPoolExecutor::IOThread" = type { %"struct.folly::ThreadPoolExecutor::Thread.base", %"struct.std::atomic.12", %"struct.std::atomic.10", ptr, %"class.std::mutex", [24 x i8] }
%"struct.folly::ThreadPoolExecutor::Thread.base" = type <{ %"class.folly::ThreadPoolExecutor::ThreadHandle", i64, %"class.std::thread", %"struct.std::atomic.12", [7 x i8], %"class.folly::AtomicStruct.29", %"class.folly::Baton" }>
%"class.folly::ThreadPoolExecutor::ThreadHandle" = type { ptr }
%"class.std::thread" = type { %"class.std::thread::id" }
%"class.std::thread::id" = type { i64 }
%"class.folly::AtomicStruct.29" = type { %"struct.std::atomic.10" }

@_ZTIN5folly18ThreadPoolExecutor12ThreadHandleE = linkonce_odr constant { ptr, ptr } { ptr getelementptr inbounds (ptr, ptr @_ZTVN10__cxxabiv117__class_type_infoE, i64 2), ptr @_ZTSN5folly18ThreadPoolExecutor12ThreadHandleE }, comdat, align 8
@_ZTIN5folly20IOThreadPoolExecutor8IOThreadE = linkonce_odr constant { ptr, ptr, ptr } { ptr getelementptr inbounds (ptr, ptr @_ZTVN10__cxxabiv120__si_class_type_infoE, i64 2), ptr @_ZTSN5folly20IOThreadPoolExecutor8IOThreadE, ptr @_ZTIN5folly18ThreadPoolExecutor6ThreadE }, comdat, align 8

; Function Attrs: mustprogress nounwind uwtable
define noundef ptr @_ZN5folly20IOThreadPoolExecutor12getEventBaseEPNS_18ThreadPoolExecutor12ThreadHandleE(ptr noundef %0) #0 align 2 {
  %2 = alloca ptr, align 8
  %3 = alloca ptr, align 8
  %4 = alloca ptr, align 8
  %5 = alloca i32, align 4
  store ptr %0, ptr %3, align 8, !tbaa !23
  call void @llvm.lifetime.start.p0(i64 8, ptr %4) #25
  %6 = load ptr, ptr %3, align 8, !tbaa !23
  %7 = icmp eq ptr %6, null
  br i1 %7, label %10, label %8

8:                                                ; preds = %1
  %9 = call ptr @__dynamic_cast(ptr %6, ptr @_ZTIN5folly18ThreadPoolExecutor12ThreadHandleE, ptr @_ZTIN5folly20IOThreadPoolExecutor8IOThreadE, i64 0) #25
  br label %11

10:                                               ; preds = %1
  br label %11

11:                                               ; preds = %10, %8
  %12 = phi ptr [ %9, %8 ], [ null, %10 ]
  store ptr %12, ptr %4, align 8, !tbaa !156
  %13 = load ptr, ptr %4, align 8, !tbaa !156
  %14 = icmp ne ptr %13, null
  br i1 %14, label %15, label %19

15:                                               ; preds = %11
  %16 = load ptr, ptr %4, align 8, !tbaa !156
  %17 = getelementptr inbounds nuw %"struct.folly::IOThreadPoolExecutor::IOThread", ptr %16, i32 0, i32 3
  %18 = load ptr, ptr %17, align 8, !tbaa !59
  store ptr %18, ptr %2, align 8
  store i32 1, ptr %5, align 4
  br label %20

19:                                               ; preds = %11
  store ptr null, ptr %2, align 8
  store i32 1, ptr %5, align 4
  br label %20

20:                                               ; preds = %19, %15
  call void @llvm.lifetime.end.p0(i64 8, ptr %4) #25
  %21 = load ptr, ptr %2, align 8
  ret ptr %21
}