; Function Attrs: mustprogress nofree nounwind willreturn memory(read) uwtable
define noundef ptr @_ZN5folly20IOThreadPoolExecutor12getEventBaseEPNS_18ThreadPoolExecutor12ThreadHandleE(ptr noundef readonly %0) local_unnamed_addr #7 align 2 {
  %2 = icmp eq ptr %0, null
  br i1 %2, label %.thread, label %3

3:                                                ; preds = %1
  %4 = tail call ptr @__dynamic_cast(ptr nonnull %0, ptr nonnull @_ZTIN5folly18ThreadPoolExecutor12ThreadHandleE, ptr nonnull @_ZTIN5folly20IOThreadPoolExecutor8IOThreadE, i64 0) #25
  %.not = icmp eq ptr %4, null
  br i1 %.not, label %.thread, label %5

5:                                                ; preds = %3
  %6 = getelementptr inbounds nuw i8, ptr %4, i64 56
  %7 = load ptr, ptr %6, align 8, !tbaa !86
  br label %.thread

.thread:                                          ; preds = %1, %3, %5
  %.0 = phi ptr [ %7, %5 ], [ null, %3 ], [ null, %1 ]
  ret ptr %.0
}